; Function Attrs: mustprogress uwtable
define noalias ptr @lean_io_mono_ms_now(ptr noundef readnone captures(none) %0) local_unnamed_addr #0 {
  %2 = tail call i64 @_ZNSt6chrono3_V212steady_clock3nowEv() #27
  %3 = sdiv i64 %2, 1000000
  %4 = icmp sgt i64 %2, -1000000
  br i1 %4, label %5, label %9, !prof !10

5:                                                ; preds = %1
  %6 = shl nuw nsw i64 %3, 1
  %7 = or disjoint i64 %6, 1
  %8 = inttoptr i64 %7 to ptr
  br label %_ZN4lean13uint64_to_natEm.exit

9:                                                ; preds = %1
  %10 = tail call ptr @lean_big_uint64_to_nat(i64 noundef %3)
  br label %_ZN4lean13uint64_to_natEm.exit

_ZN4lean13uint64_to_natEm.exit:                   ; preds = %5, %9
  %.0.i.i = phi ptr [ %8, %5 ], [ %10, %9 ]
  tail call void @lean_inc_heartbeat()
  %11 = tail call noalias ptr @mi_malloc_small(i64 noundef 24) #27
  %12 = icmp eq ptr %11, null
  br i1 %12, label %13, label %_ZN4lean15io_result_mk_okEP11lean_object.exit

13:                                               ; preds = %_ZN4lean13uint64_to_natEm.exit
  tail call void @lean_internal_panic_out_of_memory() #28
  unreachable

_ZN4lean15io_result_mk_okEP11lean_object.exit:    ; preds = %_ZN4lean13uint64_to_natEm.exit
  %14 = getelementptr inbounds nuw i8, ptr %11, i64 4
  store i32 1, ptr %11, align 4, !tbaa !7
  store i32 131096, ptr %14, align 4
  %15 = getelementptr inbounds nuw i8, ptr %11, i64 8
  store ptr %.0.i.i, ptr %15, align 8, !tbaa !3
  %16 = getelementptr inbounds nuw i8, ptr %11, i64 16
  store ptr inttoptr (i64 1 to ptr), ptr %16, align 8, !tbaa !3
  ret ptr %11
}